; Function Attrs: nounwind uwtable
define dso_local range(i32 -30, 1) i32 @archive_write_set_format_pax(ptr noundef %0) local_unnamed_addr #0 {
  %2 = tail call i32 @__archive_check_magic(ptr noundef %0, i32 noundef -1329217314, i32 noundef 1, ptr noundef nonnull @.str.2) #15
  %3 = icmp eq i32 %2, -30
  br i1 %3, label %24, label %4

4:                                                ; preds = %1
  %5 = getelementptr inbounds nuw i8, ptr %0, i64 312
  %6 = load ptr, ptr %5, align 8
  %.not = icmp eq ptr %6, null
  br i1 %.not, label %9, label %7

7:                                                ; preds = %4
  %8 = tail call i32 %6(ptr noundef nonnull %0) #15
  br label %9

9:                                                ; preds = %7, %4
  %10 = tail call noalias dereferenceable_or_null(128) ptr @calloc(i64 noundef 1, i64 noundef 128) #16
  %11 = icmp eq ptr %10, null
  br i1 %11, label %12, label %13

12:                                               ; preds = %9
  tail call void (ptr, i32, ptr, ...) @archive_set_error(ptr noundef nonnull %0, i32 noundef 12, ptr noundef nonnull @.str.3) #15
  br label %24

13:                                               ; preds = %9
  %14 = getelementptr inbounds nuw i8, ptr %10, i64 124
  store i32 3, ptr %14, align 4
  %15 = getelementptr inbounds nuw i8, ptr %0, i64 248
  store ptr %10, ptr %15, align 8
  %16 = getelementptr inbounds nuw i8, ptr %0, i64 256
  store ptr @.str.4, ptr %16, align 8
  %17 = getelementptr inbounds nuw i8, ptr %0, i64 272
  store ptr @archive_write_pax_options, ptr %17, align 8
  %18 = getelementptr inbounds nuw i8, ptr %0, i64 288
  store ptr @archive_write_pax_header, ptr %18, align 8
  %19 = getelementptr inbounds nuw i8, ptr %0, i64 296
  store ptr @archive_write_pax_data, ptr %19, align 8
  %20 = getelementptr inbounds nuw i8, ptr %0, i64 304
  store ptr @archive_write_pax_close, ptr %20, align 8
  store ptr @archive_write_pax_free, ptr %5, align 8
  %21 = getelementptr inbounds nuw i8, ptr %0, i64 280
  store ptr @archive_write_pax_finish_entry, ptr %21, align 8
  %22 = getelementptr inbounds nuw i8, ptr %0, i64 16
  store i32 196610, ptr %22, align 8
  %23 = getelementptr inbounds nuw i8, ptr %0, i64 24
  store ptr @.str.5, ptr %23, align 8
  br label %24

24:                                               ; preds = %1, %13, %12
  %.0 = phi i32 [ -30, %12 ], [ 0, %13 ], [ -30, %1 ]
  ret i32 %.0
}